target datalayout = "e-m:e-p270:32:32-p271:32:32-p272:64:64-i64:64-i128:128-f80:128-n8:16:32:64-S128"
target triple = "x86_64-pc-linux-gnu"

%struct.tjscalingfactor = type { i32, i32 }
%struct.tjregion = type { i32, i32, i32, i32 }
%struct._tjinstance = type { %struct.jpeg_compress_struct, %struct.jpeg_decompress_struct, %struct.my_error_mgr, i32, [200 x i8], i32, i32, i32, i32, i32, i32, i32, i32, i32, i32, i32, i32, i32, i32, i32, i32, i32, i32, i32, i32, i32, i32, i32, %struct.tjscalingfactor, %struct.tjregion, i32, i32 }
%struct.jpeg_compress_struct = type { ptr, ptr, ptr, ptr, i32, i32, ptr, i32, i32, i32, i32, double, i32, i32, i32, ptr, [4 x ptr], [4 x ptr], [4 x ptr], [16 x i8], [16 x i8], [16 x i8], i32, ptr, i32, i32, i32, i32, i32, i32, i32, i32, i32, i8, i8, i8, i16, i16, i32, i32, i32, i32, i32, i32, i32, [4 x ptr], i32, i32, i32, [10 x i32], i32, i32, i32, i32, ptr, ptr, ptr, ptr, ptr, ptr, ptr, ptr, ptr, ptr, i32 }
%struct.jpeg_decompress_struct = type { ptr, ptr, ptr, ptr, i32, i32, ptr, i32, i32, i32, i32, i32, i32, i32, double, i32, i32, i32, i32, i32, i32, i32, i32, i32, i32, i32, i32, i32, i32, i32, i32, i32, i32, ptr, i32, i32, i32, i32, i32, ptr, [4 x ptr], [4 x ptr], [4 x ptr], i32, ptr, i32, i32, [16 x i8], [16 x i8], [16 x i8], i32, i32, i8, i8, i8, i16, i16, i32, i8, i32, ptr, i32, i32, i32, i32, ptr, i32, [4 x ptr], i32, i32, i32, [10 x i32], i32, i32, i32, i32, i32, ptr, ptr, ptr, ptr, ptr, ptr, ptr, ptr, ptr, ptr, ptr }
%struct.my_error_mgr = type { %struct.jpeg_error_mgr, [1 x %struct.__jmp_buf_tag], ptr, i32, i32 }
%struct.jpeg_error_mgr = type { ptr, ptr, ptr, ptr, ptr, i32, %union.anon, i32, i64, ptr, i32, ptr, i32, i32 }
%union.anon = type { [8 x i32], [48 x i8] }
%struct.__jmp_buf_tag = type { [8 x i64], i32, %struct.__sigset_t }
%struct.__sigset_t = type { [16 x i64] }

; Function Attrs: nounwind uwtable
define void @tj3Destroy(ptr noundef %0) #0 {
  %2 = alloca ptr, align 8
  %3 = alloca ptr, align 8
  %4 = alloca ptr, align 8
  %5 = alloca ptr, align 8
  store ptr %0, ptr %2, align 8
  %6 = load ptr, ptr %2, align 8
  store ptr %6, ptr %3, align 8
  store ptr null, ptr %4, align 8
  store ptr null, ptr %5, align 8
  %7 = load ptr, ptr %3, align 8
  %8 = icmp ne ptr %7, null
  br i1 %8, label %10, label %9

9:                                                ; preds = %1
  br label %45

10:                                               ; preds = %1
  %11 = load ptr, ptr %3, align 8
  %12 = getelementptr inbounds %struct._tjinstance, ptr %11, i32 0, i32 0
  store ptr %12, ptr %4, align 8
  %13 = load ptr, ptr %3, align 8
  %14 = getelementptr inbounds %struct._tjinstance, ptr %13, i32 0, i32 1
  store ptr %14, ptr %5, align 8
  %15 = load ptr, ptr %3, align 8
  %16 = getelementptr inbounds %struct._tjinstance, ptr %15, i32 0, i32 2
  %17 = getelementptr inbounds %struct.my_error_mgr, ptr %16, i32 0, i32 3
  store i32 0, ptr %17, align 8
  %18 = load ptr, ptr %3, align 8
  %19 = getelementptr inbounds %struct._tjinstance, ptr %18, i32 0, i32 5
  store i32 0, ptr %19, align 4
  %20 = load ptr, ptr %3, align 8
  %21 = getelementptr inbounds %struct._tjinstance, ptr %20, i32 0, i32 2
  %22 = getelementptr inbounds %struct.my_error_mgr, ptr %21, i32 0, i32 1
  %23 = getelementptr inbounds [1 x %struct.__jmp_buf_tag], ptr %22, i64 0, i64 0
  %24 = call i32 @_setjmp(ptr noundef %23) #13
  %25 = icmp ne i32 %24, 0
  br i1 %25, label %26, label %27

26:                                               ; preds = %10
  br label %45

27:                                               ; preds = %10
  %28 = load ptr, ptr %3, align 8
  %29 = getelementptr inbounds %struct._tjinstance, ptr %28, i32 0, i32 3
  %30 = load i32, ptr %29, align 8
  %31 = and i32 %30, 1
  %32 = icmp ne i32 %31, 0
  br i1 %32, label %33, label %35

33:                                               ; preds = %27
  %34 = load ptr, ptr %4, align 8
  call void @jpeg_destroy_compress(ptr noundef %34)
  br label %35

35:                                               ; preds = %33, %27
  %36 = load ptr, ptr %3, align 8
  %37 = getelementptr inbounds %struct._tjinstance, ptr %36, i32 0, i32 3
  %38 = load i32, ptr %37, align 8
  %39 = and i32 %38, 2
  %40 = icmp ne i32 %39, 0
  br i1 %40, label %41, label %43

41:                                               ; preds = %35
  %42 = load ptr, ptr %5, align 8
  call void @jpeg_destroy_decompress(ptr noundef %42)
  br label %43

43:                                               ; preds = %41, %35
  %44 = load ptr, ptr %3, align 8
  call void @free(ptr noundef %44) #11
  br label %45

45:                                               ; preds = %43, %26, %9
  ret void
}