; Function Attrs: nounwind uwtable
define void @tj3Destroy(ptr noundef %0) local_unnamed_addr #0 {
  %.not = icmp eq ptr %0, null
  br i1 %.not, label %18, label %2

2:                                                ; preds = %1
  %3 = getelementptr inbounds i8, ptr %0, i64 520
  %4 = getelementptr inbounds i8, ptr %0, i64 1528
  store i32 0, ptr %4, align 8
  %5 = getelementptr inbounds i8, ptr %0, i64 1740
  store i32 0, ptr %5, align 4
  %6 = getelementptr inbounds i8, ptr %0, i64 1320
  %7 = call i32 @_setjmp(ptr noundef nonnull %6) #27
  %.not12 = icmp eq i32 %7, 0
  br i1 %.not12, label %8, label %18

8:                                                ; preds = %2
  %9 = getelementptr inbounds i8, ptr %0, i64 1536
  %10 = load i32, ptr %9, align 8
  %11 = and i32 %10, 1
  %.not13 = icmp eq i32 %11, 0
  br i1 %.not13, label %13, label %12

12:                                               ; preds = %8
  call void @jpeg_destroy_compress(ptr noundef nonnull %0) #26
  %.pre = load i32, ptr %9, align 8
  br label %13

13:                                               ; preds = %12, %8
  %14 = phi i32 [ %.pre, %12 ], [ %10, %8 ]
  %15 = and i32 %14, 2
  %.not14 = icmp eq i32 %15, 0
  br i1 %.not14, label %17, label %16

16:                                               ; preds = %13
  call void @jpeg_destroy_decompress(ptr noundef nonnull %3) #26
  br label %17

17:                                               ; preds = %16, %13
  call void @free(ptr noundef nonnull %0) #26
  br label %18

18:                                               ; preds = %2, %1, %17
  ret void
}